; Function Attrs: mustprogress uwtable
define void @_ZNK18MLRenderingToolbar37getCurrentRenderingDataAccordingToGUIER15MLRenderingData(ptr nocapture noundef nonnull readonly align 8 dereferenceable(96) %0, ptr noundef nonnull align 8 dereferenceable(40) %1) local_unnamed_addr #3 align 2 {
  %3 = getelementptr inbounds i8, ptr %0, i64 48
  %4 = load ptr, ptr %3, align 8
  %5 = getelementptr inbounds i8, ptr %4, i64 12
  %6 = load i32, ptr %5, align 4
  %7 = getelementptr inbounds i8, ptr %4, i64 8
  %8 = load i32, ptr %7, align 8
  %9 = icmp sgt i32 %6, %8
  br i1 %9, label %.lr.ph, label %._crit_edge

.lr.ph:                                           ; preds = %2, %21
  %10 = phi ptr [ %22, %21 ], [ %4, %2 ]
  %indvars.iv = phi i64 [ %indvars.iv.next, %21 ], [ 0, %2 ]
  %11 = phi i32 [ %26, %21 ], [ %8, %2 ]
  %12 = getelementptr inbounds i8, ptr %10, i64 16
  %13 = sext i32 %11 to i64
  %14 = getelementptr inbounds ptr, ptr %12, i64 %13
  %15 = getelementptr inbounds ptr, ptr %14, i64 %indvars.iv
  %16 = load ptr, ptr %15, align 8
  %.not = icmp eq ptr %16, null
  br i1 %.not, label %21, label %17

17:                                               ; preds = %.lr.ph
  %18 = load ptr, ptr %16, align 8
  %19 = getelementptr inbounds i8, ptr %18, i64 104
  %20 = load ptr, ptr %19, align 8
  tail call void %20(ptr noundef nonnull align 8 dereferenceable(16) %16, ptr noundef nonnull align 8 dereferenceable(40) %1)
  %.pre = load ptr, ptr %3, align 8
  br label %21

21:                                               ; preds = %.lr.ph, %17
  %22 = phi ptr [ %10, %.lr.ph ], [ %.pre, %17 ]
  %indvars.iv.next = add nuw nsw i64 %indvars.iv, 1
  %23 = getelementptr inbounds i8, ptr %22, i64 12
  %24 = load i32, ptr %23, align 4
  %25 = getelementptr inbounds i8, ptr %22, i64 8
  %26 = load i32, ptr %25, align 8
  %27 = sub nsw i32 %24, %26
  %28 = sext i32 %27 to i64
  %29 = icmp slt i64 %indvars.iv.next, %28
  br i1 %29, label %.lr.ph, label %._crit_edge, !llvm.loop !45

._crit_edge:                                      ; preds = %21, %2
  ret void
}